target datalayout = "e-m:e-p270:32:32-p271:32:32-p272:64:64-i64:64-i128:128-f80:128-n8:16:32:64-S128"
target triple = "x86_64-pc-linux-gnu"

%struct.ossl_param_st = type { ptr, i32, ptr, i64, i64 }

@mainctx = internal global ptr null, align 8
@.str.28 = private unnamed_addr constant [34 x i8] c"../openssl/test/evp_extra_test2.c\00", align 1
@.str.57 = private unnamed_addr constant [2 x i8] c"1\00", align 1
@.str.69 = private unnamed_addr constant [2 x i8] c"0\00", align 1
@.str.134 = private unnamed_addr constant [6 x i8] c"pbits\00", align 1
@.str.142 = private unnamed_addr constant [55 x i8] c"gctx = EVP_PKEY_CTX_new_from_pkey(mainctx, pkey, NULL)\00", align 1
@.str.143 = private unnamed_addr constant [29 x i8] c"EVP_PKEY_paramgen_init(gctx)\00", align 1
@.str.150 = private unnamed_addr constant [38 x i8] c"EVP_PKEY_CTX_set_params(gctx, params)\00", align 1
@.str.157 = private unnamed_addr constant [5 x i8] c"type\00", align 1
@.str.158 = private unnamed_addr constant [10 x i8] c"generator\00", align 1
@.str.159 = private unnamed_addr constant [55 x i8] c"gctx = EVP_PKEY_CTX_new_from_name(mainctx, \22DH\22, NULL)\00", align 1
@.str.160 = private unnamed_addr constant [3 x i8] c"DH\00", align 1
@.str.161 = private unnamed_addr constant [31 x i8] c"EVP_PKEY_paramgen(gctx, &pkey)\00", align 1
@.str.162 = private unnamed_addr constant [5 x i8] c"pkey\00", align 1
@.str.163 = private unnamed_addr constant [27 x i8] c"EVP_PKEY_param_check(gctx)\00", align 1
@.str.164 = private unnamed_addr constant [33 x i8] c"EVP_PKEY_param_check_quick(gctx)\00", align 1

; Function Attrs: nounwind uwtable
define internal i32 @test_dh_paramgen() #0 {
  %1 = alloca i32, align 4
  %2 = alloca [3 x %struct.ossl_param_st], align 16
  %3 = alloca ptr, align 8
  %4 = alloca ptr, align 8
  %5 = alloca i32, align 4
  %6 = alloca %struct.ossl_param_st, align 8
  %7 = alloca %struct.ossl_param_st, align 8
  %8 = alloca %struct.ossl_param_st, align 8
  call void @llvm.lifetime.start.p0(i64 4, ptr %1) #7
  call void @llvm.lifetime.start.p0(i64 120, ptr %2) #7
  call void @llvm.lifetime.start.p0(i64 8, ptr %3) #7
  store ptr null, ptr %3, align 8, !tbaa !13
  call void @llvm.lifetime.start.p0(i64 8, ptr %4) #7
  store ptr null, ptr %4, align 8, !tbaa !29
  call void @llvm.lifetime.start.p0(i64 4, ptr %5) #7
  store i32 512, ptr %5, align 4, !tbaa !11
  %9 = getelementptr inbounds [3 x %struct.ossl_param_st], ptr %2, i64 0, i64 0
  call void @llvm.lifetime.start.p0(i64 40, ptr %6) #7
  call void @OSSL_PARAM_construct_uint(ptr dead_on_unwind writable sret(%struct.ossl_param_st) align 8 %6, ptr noundef @.str.134, ptr noundef %5)
  call void @llvm.memcpy.p0.p0.i64(ptr align 16 %9, ptr align 8 %6, i64 40, i1 false), !tbaa.struct !37
  call void @llvm.lifetime.end.p0(i64 40, ptr %6) #7
  %10 = getelementptr inbounds [3 x %struct.ossl_param_st], ptr %2, i64 0, i64 1
  call void @llvm.lifetime.start.p0(i64 40, ptr %7) #7
  call void @OSSL_PARAM_construct_utf8_string(ptr dead_on_unwind writable sret(%struct.ossl_param_st) align 8 %7, ptr noundef @.str.157, ptr noundef @.str.158, i64 noundef 0)
  call void @llvm.memcpy.p0.p0.i64(ptr align 8 %10, ptr align 8 %7, i64 40, i1 false), !tbaa.struct !37
  call void @llvm.lifetime.end.p0(i64 40, ptr %7) #7
  %11 = getelementptr inbounds [3 x %struct.ossl_param_st], ptr %2, i64 0, i64 2
  call void @llvm.lifetime.start.p0(i64 40, ptr %8) #7
  call void @OSSL_PARAM_construct_end(ptr dead_on_unwind writable sret(%struct.ossl_param_st) align 8 %8)
  call void @llvm.memcpy.p0.p0.i64(ptr align 16 %11, ptr align 8 %8, i64 40, i1 false), !tbaa.struct !37
  call void @llvm.lifetime.end.p0(i64 40, ptr %8) #7
  %12 = load ptr, ptr @mainctx, align 8, !tbaa !4
  %13 = call ptr @EVP_PKEY_CTX_new_from_name(ptr noundef %12, ptr noundef @.str.160, ptr noundef null)
  store ptr %13, ptr %4, align 8, !tbaa !29
  %14 = call i32 @test_ptr(ptr noundef @.str.28, i32 noundef 386, ptr noundef @.str.159, ptr noundef %13)
  %15 = icmp ne i32 %14, 0
  br i1 %15, label %16, label %40

16:                                               ; preds = %0
  %17 = load ptr, ptr %4, align 8, !tbaa !29
  %18 = call i32 @EVP_PKEY_paramgen_init(ptr noundef %17)
  %19 = call i32 @test_int_gt(ptr noundef @.str.28, i32 noundef 387, ptr noundef @.str.143, ptr noundef @.str.69, i32 noundef %18, i32 noundef 0)
  %20 = icmp ne i32 %19, 0
  br i1 %20, label %21, label %40

21:                                               ; preds = %16
  %22 = load ptr, ptr %4, align 8, !tbaa !29
  %23 = getelementptr inbounds [3 x %struct.ossl_param_st], ptr %2, i64 0, i64 0
  %24 = call i32 @EVP_PKEY_CTX_set_params(ptr noundef %22, ptr noundef %23)
  %25 = icmp ne i32 %24, 0
  %26 = zext i1 %25 to i32
  %27 = call i32 @test_true(ptr noundef @.str.28, i32 noundef 388, ptr noundef @.str.150, i32 noundef %26)
  %28 = icmp ne i32 %27, 0
  br i1 %28, label %29, label %40

29:                                               ; preds = %21
  %30 = load ptr, ptr %4, align 8, !tbaa !29
  %31 = call i32 @EVP_PKEY_paramgen(ptr noundef %30, ptr noundef %3)
  %32 = icmp ne i32 %31, 0
  %33 = zext i1 %32 to i32
  %34 = call i32 @test_true(ptr noundef @.str.28, i32 noundef 389, ptr noundef @.str.161, i32 noundef %33)
  %35 = icmp ne i32 %34, 0
  br i1 %35, label %36, label %40

36:                                               ; preds = %29
  %37 = load ptr, ptr %3, align 8, !tbaa !13
  %38 = call i32 @test_ptr(ptr noundef @.str.28, i32 noundef 390, ptr noundef @.str.162, ptr noundef %37)
  %39 = icmp ne i32 %38, 0
  br label %40

40:                                               ; preds = %36, %29, %21, %16, %0
  %41 = phi i1 [ false, %29 ], [ false, %21 ], [ false, %16 ], [ false, %0 ], [ %39, %36 ]
  %42 = zext i1 %41 to i32
  store i32 %42, ptr %1, align 4, !tbaa !11
  %43 = load ptr, ptr %4, align 8, !tbaa !29
  call void @EVP_PKEY_CTX_free(ptr noundef %43)
  store ptr null, ptr %4, align 8, !tbaa !29
  %44 = load i32, ptr %1, align 4, !tbaa !11
  %45 = icmp ne i32 %44, 0
  br i1 %45, label %46, label %62

46:                                               ; preds = %40
  %47 = load ptr, ptr @mainctx, align 8, !tbaa !4
  %48 = load ptr, ptr %3, align 8, !tbaa !13
  %49 = call ptr @EVP_PKEY_CTX_new_from_pkey(ptr noundef %47, ptr noundef %48, ptr noundef null)
  store ptr %49, ptr %4, align 8, !tbaa !29
  %50 = call i32 @test_ptr(ptr noundef @.str.28, i32 noundef 395, ptr noundef @.str.142, ptr noundef %49)
  %51 = icmp ne i32 %50, 0
  br i1 %51, label %52, label %62

52:                                               ; preds = %46
  %53 = load ptr, ptr %4, align 8, !tbaa !29
  %54 = call i32 @EVP_PKEY_param_check(ptr noundef %53)
  %55 = call i32 @test_int_eq(ptr noundef @.str.28, i32 noundef 396, ptr noundef @.str.163, ptr noundef @.str.57, i32 noundef %54, i32 noundef 1)
  %56 = icmp ne i32 %55, 0
  br i1 %56, label %57, label %62

57:                                               ; preds = %52
  %58 = load ptr, ptr %4, align 8, !tbaa !29
  %59 = call i32 @EVP_PKEY_param_check_quick(ptr noundef %58)
  %60 = call i32 @test_int_eq(ptr noundef @.str.28, i32 noundef 397, ptr noundef @.str.164, ptr noundef @.str.57, i32 noundef %59, i32 noundef 1)
  %61 = icmp ne i32 %60, 0
  br label %62

62:                                               ; preds = %57, %52, %46, %40
  %63 = phi i1 [ false, %52 ], [ false, %46 ], [ false, %40 ], [ %61, %57 ]
  %64 = zext i1 %63 to i32
  store i32 %64, ptr %1, align 4, !tbaa !11
  %65 = load ptr, ptr %4, align 8, !tbaa !29
  call void @EVP_PKEY_CTX_free(ptr noundef %65)
  %66 = load ptr, ptr %3, align 8, !tbaa !13
  call void @EVP_PKEY_free(ptr noundef %66)
  %67 = load i32, ptr %1, align 4, !tbaa !11
  call void @llvm.lifetime.end.p0(i64 4, ptr %5) #7
  call void @llvm.lifetime.end.p0(i64 8, ptr %4) #7
  call void @llvm.lifetime.end.p0(i64 8, ptr %3) #7
  call void @llvm.lifetime.end.p0(i64 120, ptr %2) #7
  call void @llvm.lifetime.end.p0(i64 4, ptr %1) #7
  ret i32 %67
}