; Function Attrs: nounwind uwtable
define internal range(i32 0, 2) i32 @test_dh_paramgen() #0 {
  %1 = alloca [3 x %struct.ossl_param_st], align 16
  %2 = alloca ptr, align 8
  %3 = alloca i32, align 4
  %4 = alloca %struct.ossl_param_st, align 8
  %5 = alloca %struct.ossl_param_st, align 8
  call void @llvm.lifetime.start.p0(i64 120, ptr nonnull %1) #7
  call void @llvm.lifetime.start.p0(i64 8, ptr nonnull %2) #7
  store ptr null, ptr %2, align 8, !tbaa !26
  call void @llvm.lifetime.start.p0(i64 4, ptr nonnull %3) #7
  store i32 512, ptr %3, align 4, !tbaa !22
  call void @OSSL_PARAM_construct_uint(ptr dead_on_unwind nonnull writable sret(%struct.ossl_param_st) align 8 %1, ptr noundef nonnull @.str.134, ptr noundef nonnull %3) #7
  %6 = getelementptr inbounds nuw i8, ptr %1, i64 40
  call void @llvm.lifetime.start.p0(i64 40, ptr nonnull %4) #7
  call void @OSSL_PARAM_construct_utf8_string(ptr dead_on_unwind nonnull writable sret(%struct.ossl_param_st) align 8 %4, ptr noundef nonnull @.str.157, ptr noundef nonnull @.str.158, i64 noundef 0) #7
  call void @llvm.memcpy.p0.p0.i64(ptr noundef nonnull align 8 dereferenceable(40) %6, ptr noundef nonnull align 8 dereferenceable(40) %4, i64 40, i1 false), !tbaa.struct !23
  call void @llvm.lifetime.end.p0(i64 40, ptr nonnull %4) #7
  %7 = getelementptr inbounds nuw i8, ptr %1, i64 80
  call void @llvm.lifetime.start.p0(i64 40, ptr nonnull %5) #7
  call void @OSSL_PARAM_construct_end(ptr dead_on_unwind nonnull writable sret(%struct.ossl_param_st) align 8 %5) #7
  call void @llvm.memcpy.p0.p0.i64(ptr noundef nonnull align 16 dereferenceable(40) %7, ptr noundef nonnull align 8 dereferenceable(40) %5, i64 40, i1 false), !tbaa.struct !23
  call void @llvm.lifetime.end.p0(i64 40, ptr nonnull %5) #7
  %8 = load ptr, ptr @mainctx, align 8, !tbaa !4
  %9 = call ptr @EVP_PKEY_CTX_new_from_name(ptr noundef %8, ptr noundef nonnull @.str.160, ptr noundef null) #7
  %10 = call i32 @test_ptr(ptr noundef nonnull @.str.28, i32 noundef 386, ptr noundef nonnull @.str.159, ptr noundef %9) #7
  %.not = icmp eq i32 %10, 0
  br i1 %.not, label %.critedge, label %11

11:                                               ; preds = %0
  %12 = call i32 @EVP_PKEY_paramgen_init(ptr noundef %9) #7
  %13 = call i32 @test_int_gt(ptr noundef nonnull @.str.28, i32 noundef 387, ptr noundef nonnull @.str.143, ptr noundef nonnull @.str.69, i32 noundef %12, i32 noundef 0) #7
  %.not8 = icmp eq i32 %13, 0
  br i1 %.not8, label %.critedge, label %14

14:                                               ; preds = %11
  %15 = call i32 @EVP_PKEY_CTX_set_params(ptr noundef %9, ptr noundef nonnull %1) #7
  %16 = icmp ne i32 %15, 0
  %17 = zext i1 %16 to i32
  %18 = call i32 @test_true(ptr noundef nonnull @.str.28, i32 noundef 388, ptr noundef nonnull @.str.150, i32 noundef %17) #7
  %.not9 = icmp eq i32 %18, 0
  br i1 %.not9, label %.critedge, label %19

19:                                               ; preds = %14
  %20 = call i32 @EVP_PKEY_paramgen(ptr noundef %9, ptr noundef nonnull %2) #7
  %21 = icmp ne i32 %20, 0
  %22 = zext i1 %21 to i32
  %23 = call i32 @test_true(ptr noundef nonnull @.str.28, i32 noundef 389, ptr noundef nonnull @.str.161, i32 noundef %22) #7
  %.not10 = icmp eq i32 %23, 0
  br i1 %.not10, label %.critedge, label %24

24:                                               ; preds = %19
  %25 = load ptr, ptr %2, align 8, !tbaa !26
  %26 = call i32 @test_ptr(ptr noundef nonnull @.str.28, i32 noundef 390, ptr noundef nonnull @.str.162, ptr noundef %25) #7
  %.not13 = icmp eq i32 %26, 0
  call void @EVP_PKEY_CTX_free(ptr noundef %9) #7
  br i1 %.not13, label %40, label %27

27:                                               ; preds = %24
  %28 = load ptr, ptr @mainctx, align 8, !tbaa !4
  %29 = load ptr, ptr %2, align 8, !tbaa !26
  %30 = call ptr @EVP_PKEY_CTX_new_from_pkey(ptr noundef %28, ptr noundef %29, ptr noundef null) #7
  %31 = call i32 @test_ptr(ptr noundef nonnull @.str.28, i32 noundef 395, ptr noundef nonnull @.str.142, ptr noundef %30) #7
  %.not11 = icmp eq i32 %31, 0
  br i1 %.not11, label %40, label %32

32:                                               ; preds = %27
  %33 = call i32 @EVP_PKEY_param_check(ptr noundef %30) #7
  %34 = call i32 @test_int_eq(ptr noundef nonnull @.str.28, i32 noundef 396, ptr noundef nonnull @.str.163, ptr noundef nonnull @.str.57, i32 noundef %33, i32 noundef 1) #7
  %.not12 = icmp eq i32 %34, 0
  br i1 %.not12, label %40, label %35

35:                                               ; preds = %32
  %36 = call i32 @EVP_PKEY_param_check_quick(ptr noundef %30) #7
  %37 = call i32 @test_int_eq(ptr noundef nonnull @.str.28, i32 noundef 397, ptr noundef nonnull @.str.164, ptr noundef nonnull @.str.57, i32 noundef %36, i32 noundef 1) #7
  %38 = icmp ne i32 %37, 0
  %39 = zext i1 %38 to i32
  br label %40

.critedge:                                        ; preds = %0, %11, %14, %19
  call void @EVP_PKEY_CTX_free(ptr noundef %9) #7
  br label %40

40:                                               ; preds = %.critedge, %35, %32, %27, %24
  %.0 = phi ptr [ %30, %35 ], [ %30, %32 ], [ %30, %27 ], [ null, %24 ], [ null, %.critedge ]
  %41 = phi i32 [ %39, %35 ], [ 0, %32 ], [ 0, %27 ], [ 0, %24 ], [ 0, %.critedge ]
  call void @EVP_PKEY_CTX_free(ptr noundef %.0) #7
  %42 = load ptr, ptr %2, align 8, !tbaa !26
  call void @EVP_PKEY_free(ptr noundef %42) #7
  call void @llvm.lifetime.end.p0(i64 4, ptr nonnull %3) #7
  call void @llvm.lifetime.end.p0(i64 8, ptr nonnull %2) #7
  call void @llvm.lifetime.end.p0(i64 120, ptr nonnull %1) #7
  ret i32 %41
}